; Function Attrs: mustprogress nounwind uwtable
define hidden noundef zeroext i1 @_ZNK4cvc58internal15ResourceManager9outOfTimeEv(ptr noundef nonnull readonly align 8 captures(none) dereferenceable(3392) %0) local_unnamed_addr #5 align 2 {
  %2 = getelementptr inbounds nuw i8, ptr %0, i64 8
  %3 = load i8, ptr %2, align 8, !tbaa !39, !range !280, !noundef !281
  %4 = trunc nuw i8 %3 to i1
  br i1 %4, label %5, label %_ZNK4cvc58internal14WallClockTimer7expiredEv.exit

5:                                                ; preds = %1
  %6 = load ptr, ptr %0, align 8, !tbaa !61
  %7 = getelementptr inbounds nuw i8, ptr %6, i64 224
  %8 = load ptr, ptr %7, align 8, !tbaa !62
  %9 = getelementptr inbounds nuw i8, ptr %8, i64 288
  %10 = load i64, ptr %9, align 8, !tbaa !256
  %11 = icmp eq i64 %10, 0
  br i1 %11, label %_ZNK4cvc58internal14WallClockTimer7expiredEv.exit, label %12

12:                                               ; preds = %5
  %13 = getelementptr inbounds nuw i8, ptr %0, i64 24
  %.sroa.0.0.copyload.i.i.i = load i64, ptr %13, align 8, !tbaa !3
  %.not.i = icmp eq i64 %.sroa.0.0.copyload.i.i.i, 0
  br i1 %.not.i, label %_ZNK4cvc58internal14WallClockTimer7expiredEv.exit, label %14

14:                                               ; preds = %12
  %15 = tail call i64 @_ZNSt6chrono3_V212system_clock3nowEv() #28
  %.sroa.0.0.copyload.i2.i.i.i = load i64, ptr %13, align 8, !tbaa !3
  %16 = icmp sge i64 %15, %.sroa.0.0.copyload.i2.i.i.i
  br label %_ZNK4cvc58internal14WallClockTimer7expiredEv.exit

_ZNK4cvc58internal14WallClockTimer7expiredEv.exit: ; preds = %14, %12, %5, %1
  %.0 = phi i1 [ false, %1 ], [ false, %5 ], [ %16, %14 ], [ false, %12 ]
  ret i1 %.0
}